target datalayout = "e-m:e-p270:32:32-p271:32:32-p272:64:64-i64:64-i128:128-f80:128-n8:16:32:64-S128"
target triple = "x86_64-pc-linux-gnu"

%"class.std::__cxx11::basic_string" = type { %"struct.std::__cxx11::basic_string<char>::_Alloc_hider", i64, %union.anon }
%"struct.std::__cxx11::basic_string<char>::_Alloc_hider" = type { ptr }
%union.anon = type { i64, [8 x i8] }
%"class.(anonymous namespace)::SimpleTimer" = type { i8, %"class.llvm::TimeRecord", %"class.std::__cxx11::basic_string" }
%"class.llvm::TimeRecord" = type { double, double, double, i64, i64 }
%"class.llvm::raw_ostream" = type { ptr, i32, ptr, ptr, ptr, i8, i32 }

; Function Attrs: mustprogress nounwind uwtable
define linkonce_odr hidden noundef nonnull align 8 dereferenceable(48) ptr @_ZN4llvm11raw_ostreamlsEc(ptr noundef nonnull align 8 dereferenceable(48) %0, i8 noundef signext %1) #0 comdat align 2 {
  %3 = alloca ptr, align 8
  %4 = alloca ptr, align 8
  %5 = alloca i8, align 1
  store ptr %0, ptr %4, align 8
  store i8 %1, ptr %5, align 1
  %6 = load ptr, ptr %4, align 8
  %7 = getelementptr inbounds nuw %"class.llvm::raw_ostream", ptr %6, i32 0, i32 4
  %8 = load ptr, ptr %7, align 8
  %9 = getelementptr inbounds nuw %"class.llvm::raw_ostream", ptr %6, i32 0, i32 3
  %10 = load ptr, ptr %9, align 8
  %11 = icmp uge ptr %8, %10
  br i1 %11, label %12, label %15

12:                                               ; preds = %2
  %13 = load i8, ptr %5, align 1
  %14 = call noundef nonnull align 8 dereferenceable(48) ptr @_ZN4llvm11raw_ostream5writeEh(ptr noundef nonnull align 8 dereferenceable(48) %6, i8 noundef zeroext %13)
  store ptr %14, ptr %3, align 8
  br label %20

15:                                               ; preds = %2
  %16 = load i8, ptr %5, align 1
  %17 = getelementptr inbounds nuw %"class.llvm::raw_ostream", ptr %6, i32 0, i32 4
  %18 = load ptr, ptr %17, align 8
  %19 = getelementptr inbounds i8, ptr %18, i32 1
  store ptr %19, ptr %17, align 8
  store i8 %16, ptr %18, align 1
  store ptr %6, ptr %3, align 8
  br label %20

20:                                               ; preds = %15, %12
  %21 = load ptr, ptr %3, align 8
  ret ptr %21
}

; Function Attrs: mustprogress nounwind uwtable
define linkonce_odr hidden noundef nonnull align 8 dereferenceable(48) ptr @_ZN4llvm11raw_ostreamlsERKNSt7__cxx1112basic_stringIcSt11char_traitsIcESaIcEEE(ptr noundef nonnull align 8 dereferenceable(48) %0, ptr noundef nonnull align 8 dereferenceable(32) %1) #0 comdat align 2 {
  %3 = alloca ptr, align 8
  %4 = alloca ptr, align 8
  store ptr %0, ptr %3, align 8
  store ptr %1, ptr %4, align 8
  %5 = load ptr, ptr %3, align 8
  %6 = load ptr, ptr %4, align 8
  %7 = call noundef ptr @_ZNKSt7__cxx1112basic_stringIcSt11char_traitsIcESaIcEE4dataEv(ptr noundef nonnull align 8 dereferenceable(32) %6) #14
  %8 = load ptr, ptr %4, align 8
  %9 = call noundef i64 @_ZNKSt7__cxx1112basic_stringIcSt11char_traitsIcESaIcEE6lengthEv(ptr noundef nonnull align 8 dereferenceable(32) %8) #14
  %10 = call noundef nonnull align 8 dereferenceable(48) ptr @_ZN4llvm11raw_ostream5writeEPKcm(ptr noundef nonnull align 8 dereferenceable(48) %5, ptr noundef %7, i64 noundef %9)
  ret ptr %10
}

; Function Attrs: mustprogress nounwind uwtable
define linkonce_odr hidden void @_ZN4llvm10TimeRecordmIERKS0_(ptr noundef nonnull align 8 dereferenceable(40) %0, ptr noundef nonnull align 8 dereferenceable(40) %1) #0 comdat align 2 {
  %3 = alloca ptr, align 8
  %4 = alloca ptr, align 8
  store ptr %0, ptr %3, align 8
  store ptr %1, ptr %4, align 8
  %5 = load ptr, ptr %3, align 8
  %6 = load ptr, ptr %4, align 8
  %7 = getelementptr inbounds nuw %"class.llvm::TimeRecord", ptr %6, i32 0, i32 0
  %8 = load double, ptr %7, align 8
  %9 = getelementptr inbounds nuw %"class.llvm::TimeRecord", ptr %5, i32 0, i32 0
  %10 = load double, ptr %9, align 8
  %11 = fsub double %10, %8
  store double %11, ptr %9, align 8
  %12 = load ptr, ptr %4, align 8
  %13 = getelementptr inbounds nuw %"class.llvm::TimeRecord", ptr %12, i32 0, i32 1
  %14 = load double, ptr %13, align 8
  %15 = getelementptr inbounds nuw %"class.llvm::TimeRecord", ptr %5, i32 0, i32 1
  %16 = load double, ptr %15, align 8
  %17 = fsub double %16, %14
  store double %17, ptr %15, align 8
  %18 = load ptr, ptr %4, align 8
  %19 = getelementptr inbounds nuw %"class.llvm::TimeRecord", ptr %18, i32 0, i32 2
  %20 = load double, ptr %19, align 8
  %21 = getelementptr inbounds nuw %"class.llvm::TimeRecord", ptr %5, i32 0, i32 2
  %22 = load double, ptr %21, align 8
  %23 = fsub double %22, %20
  store double %23, ptr %21, align 8
  %24 = load ptr, ptr %4, align 8
  %25 = getelementptr inbounds nuw %"class.llvm::TimeRecord", ptr %24, i32 0, i32 3
  %26 = load i64, ptr %25, align 8
  %27 = getelementptr inbounds nuw %"class.llvm::TimeRecord", ptr %5, i32 0, i32 3
  %28 = load i64, ptr %27, align 8
  %29 = sub nsw i64 %28, %26
  store i64 %29, ptr %27, align 8
  %30 = load ptr, ptr %4, align 8
  %31 = getelementptr inbounds nuw %"class.llvm::TimeRecord", ptr %30, i32 0, i32 4
  %32 = load i64, ptr %31, align 8
  %33 = getelementptr inbounds nuw %"class.llvm::TimeRecord", ptr %5, i32 0, i32 4
  %34 = load i64, ptr %33, align 8
  %35 = sub i64 %34, %32
  store i64 %35, ptr %33, align 8
  ret void
}

; Function Attrs: mustprogress nounwind uwtable
define internal void @_ZN12_GLOBAL__N_111SimpleTimerD2Ev(ptr noundef nonnull align 8 dereferenceable(80) %0) unnamed_addr #0 align 2 {
  %2 = alloca ptr, align 8
  %3 = alloca %"class.llvm::TimeRecord", align 8
  store ptr %0, ptr %2, align 8
  %4 = load ptr, ptr %2, align 8
  %5 = getelementptr inbounds nuw %"class.(anonymous namespace)::SimpleTimer", ptr %4, i32 0, i32 0
  %6 = load i8, ptr %5, align 8
  %7 = trunc i8 %6 to i1
  br i1 %7, label %8, label %17

8:                                                ; preds = %1
  call void @_ZN4llvm10TimeRecord14getCurrentTimeEb(ptr dead_on_unwind writable sret(%"class.llvm::TimeRecord") align 8 %3, i1 noundef zeroext true)
  %9 = getelementptr inbounds nuw %"class.(anonymous namespace)::SimpleTimer", ptr %4, i32 0, i32 1
  call void @_ZN4llvm10TimeRecordmIERKS0_(ptr noundef nonnull align 8 dereferenceable(40) %3, ptr noundef nonnull align 8 dereferenceable(40) %9)
  %10 = call noundef nonnull align 8 dereferenceable(96) ptr @_ZN4llvm4errsEv()
  %11 = getelementptr inbounds nuw %"class.(anonymous namespace)::SimpleTimer", ptr %4, i32 0, i32 2
  %12 = call noundef nonnull align 8 dereferenceable(48) ptr @_ZN4llvm11raw_ostreamlsERKNSt7__cxx1112basic_stringIcSt11char_traitsIcESaIcEEE(ptr noundef nonnull align 8 dereferenceable(48) %10, ptr noundef nonnull align 8 dereferenceable(32) %11)
  %13 = call noundef nonnull align 8 dereferenceable(48) ptr @_ZN4llvm11raw_ostreamlsEc(ptr noundef nonnull align 8 dereferenceable(48) %12, i8 noundef signext 58)
  %14 = call noundef nonnull align 8 dereferenceable(96) ptr @_ZN4llvm4errsEv()
  call void @_ZNK4llvm10TimeRecord5printERKS0_RNS_11raw_ostreamE(ptr noundef nonnull align 8 dereferenceable(40) %3, ptr noundef nonnull align 8 dereferenceable(40) %3, ptr noundef nonnull align 8 dereferenceable(48) %14)
  %15 = call noundef nonnull align 8 dereferenceable(96) ptr @_ZN4llvm4errsEv()
  %16 = call noundef nonnull align 8 dereferenceable(48) ptr @_ZN4llvm11raw_ostreamlsEc(ptr noundef nonnull align 8 dereferenceable(48) %15, i8 noundef signext 10)
  br label %17

17:                                               ; preds = %8, %1
  %18 = getelementptr inbounds nuw %"class.(anonymous namespace)::SimpleTimer", ptr %4, i32 0, i32 2
  call void @_ZNSt7__cxx1112basic_stringIcSt11char_traitsIcESaIcEED1Ev(ptr noundef nonnull align 8 dereferenceable(32) %18) #14
  ret void
}