; Function Attrs: mustprogress nounwind uwtable
define internal fastcc void @_ZN12_GLOBAL__N_111SimpleTimerD2Ev(ptr noundef nonnull align 8 dereferenceable(80) %0) unnamed_addr #0 align 2 {
  %2 = alloca %"class.llvm::TimeRecord", align 8
  %3 = load i8, ptr %0, align 8
  %4 = trunc i8 %3 to i1
  br i1 %4, label %5, label %_ZN4llvm11raw_ostreamlsEc.exit3

5:                                                ; preds = %1
  call void @_ZN4llvm10TimeRecord14getCurrentTimeEb(ptr dead_on_unwind nonnull writable sret(%"class.llvm::TimeRecord") align 8 %2, i1 noundef zeroext true) #27
  %6 = getelementptr inbounds nuw i8, ptr %0, i64 8
  %7 = load double, ptr %6, align 8
  %8 = load double, ptr %2, align 8
  %9 = fsub double %8, %7
  store double %9, ptr %2, align 8
  %10 = getelementptr inbounds nuw i8, ptr %0, i64 16
  %11 = load double, ptr %10, align 8
  %12 = getelementptr inbounds nuw i8, ptr %2, i64 8
  %13 = load double, ptr %12, align 8
  %14 = fsub double %13, %11
  store double %14, ptr %12, align 8
  %15 = getelementptr inbounds nuw i8, ptr %0, i64 24
  %16 = load double, ptr %15, align 8
  %17 = getelementptr inbounds nuw i8, ptr %2, i64 16
  %18 = load double, ptr %17, align 8
  %19 = fsub double %18, %16
  store double %19, ptr %17, align 8
  %20 = getelementptr inbounds nuw i8, ptr %0, i64 32
  %21 = load i64, ptr %20, align 8
  %22 = getelementptr inbounds nuw i8, ptr %2, i64 24
  %23 = load i64, ptr %22, align 8
  %24 = sub nsw i64 %23, %21
  store i64 %24, ptr %22, align 8
  %25 = getelementptr inbounds nuw i8, ptr %0, i64 40
  %26 = load i64, ptr %25, align 8
  %27 = getelementptr inbounds nuw i8, ptr %2, i64 32
  %28 = load i64, ptr %27, align 8
  %29 = sub i64 %28, %26
  store i64 %29, ptr %27, align 8
  %30 = call noundef nonnull align 8 dereferenceable(96) ptr @_ZN4llvm4errsEv() #27
  %31 = getelementptr inbounds nuw i8, ptr %0, i64 48
  %32 = call noundef ptr @_ZNKSt7__cxx1112basic_stringIcSt11char_traitsIcESaIcEE4dataEv(ptr noundef nonnull align 8 dereferenceable(32) %31) #27
  %33 = call noundef i64 @_ZNKSt7__cxx1112basic_stringIcSt11char_traitsIcESaIcEE6lengthEv(ptr noundef nonnull align 8 dereferenceable(32) %31) #27
  %34 = call noundef nonnull align 8 dereferenceable(48) ptr @_ZN4llvm11raw_ostream5writeEPKcm(ptr noundef nonnull align 8 dereferenceable(48) %30, ptr noundef %32, i64 noundef %33) #27
  %35 = getelementptr inbounds nuw i8, ptr %34, i64 32
  %36 = load ptr, ptr %35, align 8
  %37 = getelementptr inbounds nuw i8, ptr %34, i64 24
  %38 = load ptr, ptr %37, align 8
  %.not.i = icmp ult ptr %36, %38
  br i1 %.not.i, label %41, label %39

39:                                               ; preds = %5
  %40 = call noundef nonnull align 8 dereferenceable(48) ptr @_ZN4llvm11raw_ostream5writeEh(ptr noundef nonnull align 8 dereferenceable(48) %34, i8 noundef zeroext 58) #27
  br label %_ZN4llvm11raw_ostreamlsEc.exit

41:                                               ; preds = %5
  %42 = getelementptr inbounds nuw i8, ptr %36, i64 1
  store ptr %42, ptr %35, align 8
  store i8 58, ptr %36, align 1
  br label %_ZN4llvm11raw_ostreamlsEc.exit

_ZN4llvm11raw_ostreamlsEc.exit:                   ; preds = %39, %41
  %43 = call noundef nonnull align 8 dereferenceable(96) ptr @_ZN4llvm4errsEv() #27
  call void @_ZNK4llvm10TimeRecord5printERKS0_RNS_11raw_ostreamE(ptr noundef nonnull align 8 dereferenceable(40) %2, ptr noundef nonnull align 8 dereferenceable(40) %2, ptr noundef nonnull align 8 dereferenceable(48) %43) #27
  %44 = call noundef nonnull align 8 dereferenceable(96) ptr @_ZN4llvm4errsEv() #27
  %45 = getelementptr inbounds nuw i8, ptr %44, i64 32
  %46 = load ptr, ptr %45, align 8
  %47 = getelementptr inbounds nuw i8, ptr %44, i64 24
  %48 = load ptr, ptr %47, align 8
  %.not.i1 = icmp ult ptr %46, %48
  br i1 %.not.i1, label %51, label %49

49:                                               ; preds = %_ZN4llvm11raw_ostreamlsEc.exit
  %50 = call noundef nonnull align 8 dereferenceable(48) ptr @_ZN4llvm11raw_ostream5writeEh(ptr noundef nonnull align 8 dereferenceable(48) %44, i8 noundef zeroext 10) #27
  br label %_ZN4llvm11raw_ostreamlsEc.exit3

51:                                               ; preds = %_ZN4llvm11raw_ostreamlsEc.exit
  %52 = getelementptr inbounds nuw i8, ptr %46, i64 1
  store ptr %52, ptr %45, align 8
  store i8 10, ptr %46, align 1
  br label %_ZN4llvm11raw_ostreamlsEc.exit3

_ZN4llvm11raw_ostreamlsEc.exit3:                  ; preds = %51, %49, %1
  %53 = getelementptr inbounds nuw i8, ptr %0, i64 48
  call void @_ZNSt7__cxx1112basic_stringIcSt11char_traitsIcESaIcEED1Ev(ptr noundef nonnull align 8 dereferenceable(32) %53) #27
  ret void
}